target datalayout = "e-m:e-p270:32:32-p271:32:32-p272:64:64-i64:64-i128:128-f80:128-n8:16:32:64-S128"
target triple = "x86_64-unknown-linux-gnu"

%"class.std::set.0" = type { %"class.std::_Rb_tree.1" }
%"class.std::_Rb_tree.1" = type { %"struct.std::_Rb_tree<QuantLib::Observer *, QuantLib::Observer *, std::_Identity<QuantLib::Observer *>, std::less<QuantLib::Observer *>>::_Rb_tree_impl" }
%"struct.std::_Rb_tree<QuantLib::Observer *, QuantLib::Observer *, std::_Identity<QuantLib::Observer *>, std::less<QuantLib::Observer *>>::_Rb_tree_impl" = type { [8 x i8], %"struct.std::_Rb_tree_header" }
%"struct.std::_Rb_tree_header" = type { %"struct.std::_Rb_tree_node_base", i64 }
%"struct.std::_Rb_tree_node_base" = type { i32, ptr, ptr, ptr }
%"class.std::set" = type { %"class.std::_Rb_tree" }
%"class.std::_Rb_tree" = type { %"struct.std::_Rb_tree<boost::shared_ptr<QuantLib::Observable>, boost::shared_ptr<QuantLib::Observable>, std::_Identity<boost::shared_ptr<QuantLib::Observable>>, std::less<boost::shared_ptr<QuantLib::Observable>>>::_Rb_tree_impl" }
%"struct.std::_Rb_tree<boost::shared_ptr<QuantLib::Observable>, boost::shared_ptr<QuantLib::Observable>, std::_Identity<boost::shared_ptr<QuantLib::Observable>>, std::less<boost::shared_ptr<QuantLib::Observable>>>::_Rb_tree_impl" = type { [8 x i8], %"struct.std::_Rb_tree_header" }
%"class.boost::detail::shared_count" = type { ptr }
%"class.QuantLib::Observable" = type { ptr, %"class.std::set.0" }
%"class.QuantLib::Date" = type { i64 }
%"class.QuantLib::Observer" = type { ptr, %"class.std::set" }
%"class.QuantLib::EquityCashFlow" = type { %"class.QuantLib::IndexedCashFlow.base", %"class.boost::shared_ptr.47", %"class.QuantLib::Observable", %"class.QuantLib::Observer" }
%"class.QuantLib::IndexedCashFlow.base" = type <{ %"class.QuantLib::CashFlow.base", [4 x i8], double, double, %"class.boost::shared_ptr.46", %"class.QuantLib::Date", %"class.QuantLib::Date", %"class.QuantLib::Date", i8 }>
%"class.QuantLib::CashFlow.base" = type <{ %"class.QuantLib::Event.base", %"class.QuantLib::LazyObject.base" }>
%"class.QuantLib::Event.base" = type { ptr }
%"class.QuantLib::LazyObject.base" = type <{ ptr, i8, i8, i8, i8 }>
%"class.boost::shared_ptr.46" = type { ptr, %"class.boost::detail::shared_count" }
%"class.boost::shared_ptr.47" = type { ptr, %"class.boost::detail::shared_count" }

@.str.17 = private unnamed_addr constant [8 x i8] c"px != 0\00", align 1
@.str.18 = private unnamed_addr constant [102 x i8] c"generated/home/dtcxzyw/WorkSpace/SDK/vcpkg/installed/x64-linux/include/boost/smart_ptr/shared_ptr.hpp\00", align 1
@__PRETTY_FUNCTION__._ZNK5boost10shared_ptrIN8QuantLib20EquityCashFlowPricerEEptEv = private unnamed_addr constant [157 x i8] c"typename boost::detail::sp_member_access<T>::type boost::shared_ptr<QuantLib::EquityCashFlowPricer>::operator->() const [T = QuantLib::EquityCashFlowPricer]\00", align 1

; Function Attrs: mustprogress uwtable
define linkonce_odr noundef ptr @_ZNK5boost10shared_ptrIN8QuantLib20EquityCashFlowPricerEEptEv(ptr noundef nonnull align 8 dereferenceable(16) %this) #2 comdat align 2 {
entry:
  %this.addr = alloca ptr, align 8
  store ptr %this, ptr %this.addr, align 8, !tbaa !3
  %this1 = load ptr, ptr %this.addr, align 8
  %px = getelementptr inbounds nuw %"class.boost::shared_ptr.47", ptr %this1, i32 0, i32 0
  %0 = load ptr, ptr %px, align 8, !tbaa !44
  %cmp = icmp ne ptr %0, null
  %lnot = xor i1 %cmp, true
  %lnot2 = xor i1 %lnot, true
  %conv = zext i1 %lnot2 to i64
  %expval = call i64 @llvm.expect.i64(i64 %conv, i64 1)
  %tobool = icmp ne i64 %expval, 0
  br i1 %tobool, label %cond.true, label %cond.false

cond.true:                                        ; preds = %entry
  br label %cond.end

cond.false:                                       ; preds = %entry
  call void @_ZN5boost16assertion_failedEPKcS1_S1_l(ptr noundef @.str.17, ptr noundef @__PRETTY_FUNCTION__._ZNK5boost10shared_ptrIN8QuantLib20EquityCashFlowPricerEEptEv, ptr noundef @.str.18, i64 noundef 784)
  br label %cond.end

cond.end:                                         ; preds = %cond.false, %cond.true
  %px3 = getelementptr inbounds nuw %"class.boost::shared_ptr.47", ptr %this1, i32 0, i32 0
  %1 = load ptr, ptr %px3, align 8, !tbaa !44
  ret ptr %1
}

; Function Attrs: mustprogress nounwind uwtable
define linkonce_odr noundef zeroext i1 @_ZNK5boost10shared_ptrIN8QuantLib20EquityCashFlowPricerEEntEv(ptr noundef nonnull align 8 dereferenceable(16) %this) #1 comdat align 2 {
entry:
  %this.addr = alloca ptr, align 8
  store ptr %this, ptr %this.addr, align 8, !tbaa !3
  %this1 = load ptr, ptr %this.addr, align 8
  %px = getelementptr inbounds nuw %"class.boost::shared_ptr.47", ptr %this1, i32 0, i32 0
  %0 = load ptr, ptr %px, align 8, !tbaa !44
  %cmp = icmp eq ptr %0, null
  ret i1 %cmp
}

; Function Attrs: mustprogress uwtable
define noundef double @_ZNK8QuantLib14EquityCashFlow6amountEv(ptr noundef nonnull align 8 dereferenceable(104) %this) unnamed_addr #2 align 2 {
entry:
  %retval = alloca double, align 8
  %this.addr = alloca ptr, align 8
  store ptr %this, ptr %this.addr, align 8, !tbaa !3
  %this1 = load ptr, ptr %this.addr, align 8
  %pricer_ = getelementptr inbounds nuw %"class.QuantLib::EquityCashFlow", ptr %this1, i32 0, i32 1
  %call = call noundef zeroext i1 @_ZNK5boost10shared_ptrIN8QuantLib20EquityCashFlowPricerEEntEv(ptr noundef nonnull align 8 dereferenceable(16) %pricer_) #15
  br i1 %call, label %if.then, label %if.end

if.then:                                          ; preds = %entry
  %call2 = call noundef double @_ZNK8QuantLib15IndexedCashFlow6amountEv(ptr noundef nonnull align 8 dereferenceable(81) %this1)
  store double %call2, ptr %retval, align 8
  br label %return

if.end:                                           ; preds = %entry
  %pricer_3 = getelementptr inbounds nuw %"class.QuantLib::EquityCashFlow", ptr %this1, i32 0, i32 1
  %call4 = call noundef ptr @_ZNK5boost10shared_ptrIN8QuantLib20EquityCashFlowPricerEEptEv(ptr noundef nonnull align 8 dereferenceable(16) %pricer_3)
  %vtable = load ptr, ptr %call4, align 8, !tbaa !12
  %vfn = getelementptr inbounds ptr, ptr %vtable, i64 1
  %0 = load ptr, ptr %vfn, align 8
  call void %0(ptr noundef nonnull align 8 dereferenceable(41) %call4, ptr noundef nonnull align 8 dereferenceable(104) %this1)
  %vtable5 = load ptr, ptr %this1, align 8, !tbaa !12
  %vfn6 = getelementptr inbounds ptr, ptr %vtable5, i64 8
  %1 = load ptr, ptr %vfn6, align 8
  %call7 = call noundef double %1(ptr noundef nonnull align 8 dereferenceable(81) %this1)
  %pricer_8 = getelementptr inbounds nuw %"class.QuantLib::EquityCashFlow", ptr %this1, i32 0, i32 1
  %call9 = call noundef ptr @_ZNK5boost10shared_ptrIN8QuantLib20EquityCashFlowPricerEEptEv(ptr noundef nonnull align 8 dereferenceable(16) %pricer_8)
  %vtable10 = load ptr, ptr %call9, align 8, !tbaa !12
  %vfn11 = getelementptr inbounds ptr, ptr %vtable10, i64 0
  %2 = load ptr, ptr %vfn11, align 8
  %call12 = call noundef double %2(ptr noundef nonnull align 8 dereferenceable(41) %call9)
  %mul = fmul double %call7, %call12
  store double %mul, ptr %retval, align 8
  br label %return

return:                                           ; preds = %if.end, %if.then
  %3 = load double, ptr %retval, align 8
  ret double %3
}