; Function Attrs: mustprogress uwtable
define noundef double @_ZNK8QuantLib14EquityCashFlow6amountEv(ptr noundef nonnull align 8 dereferenceable(104) %this) unnamed_addr #7 align 2 {
entry:
  %pricer_ = getelementptr inbounds nuw i8, ptr %this, i64 88
  %0 = load ptr, ptr %pricer_, align 8, !tbaa !64
  %cmp.i = icmp eq ptr %0, null
  br i1 %cmp.i, label %if.then, label %_ZNK5boost10shared_ptrIN8QuantLib20EquityCashFlowPricerEEptEv.exit

if.then:                                          ; preds = %entry
  %call2 = tail call noundef double @_ZNK8QuantLib15IndexedCashFlow6amountEv(ptr noundef nonnull align 8 dereferenceable(81) %this)
  br label %return

_ZNK5boost10shared_ptrIN8QuantLib20EquityCashFlowPricerEEptEv.exit: ; preds = %entry
  %vtable = load ptr, ptr %0, align 8, !tbaa !39
  %vfn = getelementptr inbounds i8, ptr %vtable, i64 8
  %1 = load ptr, ptr %vfn, align 8
  tail call void %1(ptr noundef nonnull align 8 dereferenceable(41) %0, ptr noundef nonnull align 8 dereferenceable(104) %this)
  %vtable5 = load ptr, ptr %this, align 8, !tbaa !39
  %vfn6 = getelementptr inbounds i8, ptr %vtable5, i64 64
  %2 = load ptr, ptr %vfn6, align 8
  %call7 = tail call noundef double %2(ptr noundef nonnull align 8 dereferenceable(81) %this)
  %3 = load ptr, ptr %pricer_, align 8, !tbaa !64
  %cmp.not.i1 = icmp eq ptr %3, null
  br i1 %cmp.not.i1, label %cond.false.i2, label %_ZNK5boost10shared_ptrIN8QuantLib20EquityCashFlowPricerEEptEv.exit4, !prof !50

cond.false.i2:                                    ; preds = %_ZNK5boost10shared_ptrIN8QuantLib20EquityCashFlowPricerEEptEv.exit
  tail call void @_ZN5boost16assertion_failedEPKcS1_S1_l(ptr noundef nonnull @.str.17, ptr noundef nonnull @__PRETTY_FUNCTION__._ZNK5boost10shared_ptrIN8QuantLib20EquityCashFlowPricerEEptEv, ptr noundef nonnull @.str.18, i64 noundef 784)
  %.pre.i3 = load ptr, ptr %pricer_, align 8, !tbaa !64
  br label %_ZNK5boost10shared_ptrIN8QuantLib20EquityCashFlowPricerEEptEv.exit4

_ZNK5boost10shared_ptrIN8QuantLib20EquityCashFlowPricerEEptEv.exit4: ; preds = %_ZNK5boost10shared_ptrIN8QuantLib20EquityCashFlowPricerEEptEv.exit, %cond.false.i2
  %4 = phi ptr [ %3, %_ZNK5boost10shared_ptrIN8QuantLib20EquityCashFlowPricerEEptEv.exit ], [ %.pre.i3, %cond.false.i2 ]
  %vtable10 = load ptr, ptr %4, align 8, !tbaa !39
  %5 = load ptr, ptr %vtable10, align 8
  %call12 = tail call noundef double %5(ptr noundef nonnull align 8 dereferenceable(41) %4)
  %mul = fmul double %call7, %call12
  br label %return

return:                                           ; preds = %_ZNK5boost10shared_ptrIN8QuantLib20EquityCashFlowPricerEEptEv.exit4, %if.then
  %retval.0 = phi double [ %call2, %if.then ], [ %mul, %_ZNK5boost10shared_ptrIN8QuantLib20EquityCashFlowPricerEEptEv.exit4 ]
  ret double %retval.0
}